target datalayout = "e-m:e-p270:32:32-p271:32:32-p272:64:64-i64:64-i128:128-f80:128-n8:16:32:64-S128"
target triple = "x86_64-pc-linux-gnu"

%struct._cwd_state = type { ptr, i64 }
%struct._virtual_cwd_globals = type { %struct._cwd_state, i64, i64, i64, [1024 x ptr] }
%struct._realpath_cache_bucket = type { i64, ptr, ptr, ptr, i64, i16, i16, i8 }

@cwd_globals = hidden global %struct._virtual_cwd_globals zeroinitializer, align 8

; Function Attrs: inlinehint nounwind uwtable
define internal i64 @realpath_cache_key(ptr noundef %0, i64 noundef %1) #9 {
  %3 = alloca ptr, align 8
  %4 = alloca i64, align 8
  %5 = alloca i64, align 8
  %6 = alloca ptr, align 8
  store ptr %0, ptr %3, align 8, !tbaa !12
  store i64 %1, ptr %4, align 8, !tbaa !26
  call void @llvm.lifetime.start.p0(i64 8, ptr %5) #16
  call void @llvm.lifetime.start.p0(i64 8, ptr %6) #16
  %7 = load ptr, ptr %3, align 8, !tbaa !12
  %8 = load i64, ptr %4, align 8, !tbaa !26
  %9 = getelementptr inbounds nuw i8, ptr %7, i64 %8
  store ptr %9, ptr %6, align 8, !tbaa !12
  store i64 2166136261, ptr %5, align 8, !tbaa !26
  br label %10

10:                                               ; preds = %14, %2
  %11 = load ptr, ptr %3, align 8, !tbaa !12
  %12 = load ptr, ptr %6, align 8, !tbaa !12
  %13 = icmp ult ptr %11, %12
  br i1 %13, label %14, label %23

14:                                               ; preds = %10
  %15 = load i64, ptr %5, align 8, !tbaa !26
  %16 = mul i64 %15, 16777619
  store i64 %16, ptr %5, align 8, !tbaa !26
  %17 = load ptr, ptr %3, align 8, !tbaa !12
  %18 = getelementptr inbounds nuw i8, ptr %17, i32 1
  store ptr %18, ptr %3, align 8, !tbaa !12
  %19 = load i8, ptr %17, align 1, !tbaa !4
  %20 = sext i8 %19 to i64
  %21 = load i64, ptr %5, align 8, !tbaa !26
  %22 = xor i64 %21, %20
  store i64 %22, ptr %5, align 8, !tbaa !26
  br label %10

23:                                               ; preds = %10
  %24 = load i64, ptr %5, align 8, !tbaa !26
  call void @llvm.lifetime.end.p0(i64 8, ptr %6) #16
  call void @llvm.lifetime.end.p0(i64 8, ptr %5) #16
  ret i64 %24
}

; Function Attrs: inlinehint nounwind uwtable
define internal ptr @realpath_cache_find(ptr noundef %0, i64 noundef %1, i64 noundef %2) #9 {
  %4 = alloca ptr, align 8
  %5 = alloca ptr, align 8
  %6 = alloca i64, align 8
  %7 = alloca i64, align 8
  %8 = alloca i64, align 8
  %9 = alloca i64, align 8
  %10 = alloca ptr, align 8
  %11 = alloca ptr, align 8
  %12 = alloca i32, align 4
  store ptr %0, ptr %5, align 8, !tbaa !12
  store i64 %1, ptr %6, align 8, !tbaa !26
  store i64 %2, ptr %7, align 8, !tbaa !26
  call void @llvm.lifetime.start.p0(i64 8, ptr %8) #16
  %13 = load ptr, ptr %5, align 8, !tbaa !12
  %14 = load i64, ptr %6, align 8, !tbaa !26
  %15 = call i64 @realpath_cache_key(ptr noundef %13, i64 noundef %14)
  store i64 %15, ptr %8, align 8, !tbaa !26
  call void @llvm.lifetime.start.p0(i64 8, ptr %9) #16
  %16 = load i64, ptr %8, align 8, !tbaa !26
  %17 = urem i64 %16, 1024
  store i64 %17, ptr %9, align 8, !tbaa !26
  call void @llvm.lifetime.start.p0(i64 8, ptr %10) #16
  %18 = load i64, ptr %9, align 8, !tbaa !26
  %19 = getelementptr inbounds nuw [1024 x ptr], ptr getelementptr inbounds nuw (%struct._virtual_cwd_globals, ptr @cwd_globals, i32 0, i32 4), i64 0, i64 %18
  store ptr %19, ptr %10, align 8, !tbaa !29
  br label %20

20:                                               ; preds = %107, %3
  %21 = load ptr, ptr %10, align 8, !tbaa !29
  %22 = load ptr, ptr %21, align 8, !tbaa !31
  %23 = icmp ne ptr %22, null
  br i1 %23, label %24, label %108

24:                                               ; preds = %20
  %25 = load i64, ptr getelementptr inbounds nuw (%struct._virtual_cwd_globals, ptr @cwd_globals, i32 0, i32 3), align 8, !tbaa !21
  %26 = icmp ne i64 %25, 0
  br i1 %26, label %27, label %75

27:                                               ; preds = %24
  %28 = load ptr, ptr %10, align 8, !tbaa !29
  %29 = load ptr, ptr %28, align 8, !tbaa !31
  %30 = getelementptr inbounds nuw %struct._realpath_cache_bucket, ptr %29, i32 0, i32 4
  %31 = load i64, ptr %30, align 8, !tbaa !41
  %32 = load i64, ptr %7, align 8, !tbaa !26
  %33 = icmp slt i64 %31, %32
  br i1 %33, label %34, label %75

34:                                               ; preds = %27
  call void @llvm.lifetime.start.p0(i64 8, ptr %11) #16
  %35 = load ptr, ptr %10, align 8, !tbaa !29
  %36 = load ptr, ptr %35, align 8, !tbaa !31
  store ptr %36, ptr %11, align 8, !tbaa !31
  %37 = load ptr, ptr %10, align 8, !tbaa !29
  %38 = load ptr, ptr %37, align 8, !tbaa !31
  %39 = getelementptr inbounds nuw %struct._realpath_cache_bucket, ptr %38, i32 0, i32 3
  %40 = load ptr, ptr %39, align 8, !tbaa !33
  %41 = load ptr, ptr %10, align 8, !tbaa !29
  store ptr %40, ptr %41, align 8, !tbaa !31
  %42 = load ptr, ptr %11, align 8, !tbaa !31
  %43 = getelementptr inbounds nuw %struct._realpath_cache_bucket, ptr %42, i32 0, i32 1
  %44 = load ptr, ptr %43, align 8, !tbaa !38
  %45 = load ptr, ptr %11, align 8, !tbaa !31
  %46 = getelementptr inbounds nuw %struct._realpath_cache_bucket, ptr %45, i32 0, i32 2
  %47 = load ptr, ptr %46, align 8, !tbaa !39
  %48 = icmp eq ptr %44, %47
  br i1 %48, label %49, label %58

49:                                               ; preds = %34
  %50 = load ptr, ptr %11, align 8, !tbaa !31
  %51 = getelementptr inbounds nuw %struct._realpath_cache_bucket, ptr %50, i32 0, i32 5
  %52 = load i16, ptr %51, align 8, !tbaa !37
  %53 = zext i16 %52 to i64
  %54 = add i64 48, %53
  %55 = add i64 %54, 1
  %56 = load i64, ptr getelementptr inbounds nuw (%struct._virtual_cwd_globals, ptr @cwd_globals, i32 0, i32 1), align 8, !tbaa !19
  %57 = sub i64 %56, %55
  store i64 %57, ptr getelementptr inbounds nuw (%struct._virtual_cwd_globals, ptr @cwd_globals, i32 0, i32 1), align 8, !tbaa !19
  br label %73

58:                                               ; preds = %34
  %59 = load ptr, ptr %11, align 8, !tbaa !31
  %60 = getelementptr inbounds nuw %struct._realpath_cache_bucket, ptr %59, i32 0, i32 5
  %61 = load i16, ptr %60, align 8, !tbaa !37
  %62 = zext i16 %61 to i64
  %63 = add i64 48, %62
  %64 = add i64 %63, 1
  %65 = load ptr, ptr %11, align 8, !tbaa !31
  %66 = getelementptr inbounds nuw %struct._realpath_cache_bucket, ptr %65, i32 0, i32 6
  %67 = load i16, ptr %66, align 2, !tbaa !40
  %68 = zext i16 %67 to i64
  %69 = add i64 %64, %68
  %70 = add i64 %69, 1
  %71 = load i64, ptr getelementptr inbounds nuw (%struct._virtual_cwd_globals, ptr @cwd_globals, i32 0, i32 1), align 8, !tbaa !19
  %72 = sub i64 %71, %70
  store i64 %72, ptr getelementptr inbounds nuw (%struct._virtual_cwd_globals, ptr @cwd_globals, i32 0, i32 1), align 8, !tbaa !19
  br label %73

73:                                               ; preds = %58, %49
  %74 = load ptr, ptr %11, align 8, !tbaa !31
  call void @free(ptr noundef %74) #16
  call void @llvm.lifetime.end.p0(i64 8, ptr %11) #16
  br label %107

75:                                               ; preds = %27, %24
  %76 = load i64, ptr %8, align 8, !tbaa !26
  %77 = load ptr, ptr %10, align 8, !tbaa !29
  %78 = load ptr, ptr %77, align 8, !tbaa !31
  %79 = getelementptr inbounds nuw %struct._realpath_cache_bucket, ptr %78, i32 0, i32 0
  %80 = load i64, ptr %79, align 8, !tbaa !36
  %81 = icmp eq i64 %76, %80
  br i1 %81, label %82, label %102

82:                                               ; preds = %75
  %83 = load i64, ptr %6, align 8, !tbaa !26
  %84 = load ptr, ptr %10, align 8, !tbaa !29
  %85 = load ptr, ptr %84, align 8, !tbaa !31
  %86 = getelementptr inbounds nuw %struct._realpath_cache_bucket, ptr %85, i32 0, i32 5
  %87 = load i16, ptr %86, align 8, !tbaa !37
  %88 = zext i16 %87 to i64
  %89 = icmp eq i64 %83, %88
  br i1 %89, label %90, label %102

90:                                               ; preds = %82
  %91 = load ptr, ptr %5, align 8, !tbaa !12
  %92 = load ptr, ptr %10, align 8, !tbaa !29
  %93 = load ptr, ptr %92, align 8, !tbaa !31
  %94 = getelementptr inbounds nuw %struct._realpath_cache_bucket, ptr %93, i32 0, i32 1
  %95 = load ptr, ptr %94, align 8, !tbaa !38
  %96 = load i64, ptr %6, align 8, !tbaa !26
  %97 = call i32 @memcmp(ptr noundef %91, ptr noundef %95, i64 noundef %96) #17
  %98 = icmp eq i32 %97, 0
  br i1 %98, label %99, label %102

99:                                               ; preds = %90
  %100 = load ptr, ptr %10, align 8, !tbaa !29
  %101 = load ptr, ptr %100, align 8, !tbaa !31
  store ptr %101, ptr %4, align 8
  store i32 1, ptr %12, align 4
  br label %109

102:                                              ; preds = %90, %82, %75
  %103 = load ptr, ptr %10, align 8, !tbaa !29
  %104 = load ptr, ptr %103, align 8, !tbaa !31
  %105 = getelementptr inbounds nuw %struct._realpath_cache_bucket, ptr %104, i32 0, i32 3
  store ptr %105, ptr %10, align 8, !tbaa !29
  br label %106

106:                                              ; preds = %102
  br label %107

107:                                              ; preds = %106, %73
  br label %20

108:                                              ; preds = %20
  store ptr null, ptr %4, align 8
  store i32 1, ptr %12, align 4
  br label %109

109:                                              ; preds = %108, %99
  call void @llvm.lifetime.end.p0(i64 8, ptr %10) #16
  call void @llvm.lifetime.end.p0(i64 8, ptr %9) #16
  call void @llvm.lifetime.end.p0(i64 8, ptr %8) #16
  %110 = load ptr, ptr %4, align 8
  ret ptr %110
}