; Function Attrs: inlinehint nounwind uwtable
define internal fastcc ptr @realpath_cache_find(ptr noundef readonly captures(address) %0, i64 noundef %1, i64 noundef %2) unnamed_addr #10 {
  %4 = getelementptr inbounds nuw i8, ptr %0, i64 %1
  %.not.i = icmp eq i64 %1, 0
  br i1 %.not.i, label %realpath_cache_key.exit, label %.lr.ph.i

.lr.ph.i:                                         ; preds = %3, %.lr.ph.i
  %.09.i = phi ptr [ %6, %.lr.ph.i ], [ %0, %3 ]
  %.078.i = phi i64 [ %9, %.lr.ph.i ], [ 2166136261, %3 ]
  %5 = mul i64 %.078.i, 16777619
  %6 = getelementptr inbounds nuw i8, ptr %.09.i, i64 1
  %7 = load i8, ptr %.09.i, align 1, !tbaa !11
  %8 = sext i8 %7 to i64
  %9 = xor i64 %5, %8
  %10 = icmp ult ptr %6, %4
  br i1 %10, label %.lr.ph.i, label %realpath_cache_key.exit

realpath_cache_key.exit:                          ; preds = %.lr.ph.i, %3
  %.07.lcssa.i = phi i64 [ 2166136261, %3 ], [ %9, %.lr.ph.i ]
  %11 = and i64 %.07.lcssa.i, 1023
  %12 = getelementptr inbounds nuw [1024 x ptr], ptr getelementptr inbounds nuw (i8, ptr @cwd_globals, i64 40), i64 0, i64 %11
  %13 = load ptr, ptr %12, align 8, !tbaa !17
  %.not34 = icmp eq ptr %13, null
  br i1 %.not34, label %._crit_edge, label %.lr.ph

.lr.ph:                                           ; preds = %realpath_cache_key.exit
  %14 = load i64, ptr getelementptr inbounds nuw (i8, ptr @cwd_globals, i64 32), align 8, !tbaa !16
  %15 = icmp eq i64 %14, 0
  br i1 %15, label %.lr.ph.split.us, label %.lr.ph.split

.lr.ph.split.us:                                  ; preds = %.lr.ph, %28
  %16 = phi ptr [ %30, %28 ], [ %13, %.lr.ph ]
  %17 = load i64, ptr %16, align 8, !tbaa !25
  %18 = icmp eq i64 %.07.lcssa.i, %17
  br i1 %18, label %19, label %28

19:                                               ; preds = %.lr.ph.split.us
  %20 = getelementptr inbounds nuw i8, ptr %16, i64 40
  %21 = load i16, ptr %20, align 8, !tbaa !26
  %22 = zext i16 %21 to i64
  %23 = icmp eq i64 %1, %22
  br i1 %23, label %24, label %28

24:                                               ; preds = %19
  %25 = getelementptr inbounds nuw i8, ptr %16, i64 8
  %26 = load ptr, ptr %25, align 8, !tbaa !27
  %bcmp.us = tail call i32 @bcmp(ptr %0, ptr %26, i64 %1)
  %27 = icmp eq i32 %bcmp.us, 0
  br i1 %27, label %._crit_edge, label %28

28:                                               ; preds = %24, %19, %.lr.ph.split.us
  %29 = getelementptr inbounds nuw i8, ptr %16, i64 24
  %30 = load ptr, ptr %29, align 8, !tbaa !17
  %.not.us = icmp eq ptr %30, null
  br i1 %.not.us, label %._crit_edge, label %.lr.ph.split.us

.lr.ph.split:                                     ; preds = %.lr.ph, %73
  %31 = phi i64 [ %74, %73 ], [ %14, %.lr.ph ]
  %32 = phi ptr [ %75, %73 ], [ %13, %.lr.ph ]
  %.02535 = phi ptr [ %.1, %73 ], [ %12, %.lr.ph ]
  %.not28 = icmp eq i64 %31, 0
  br i1 %.not28, label %59, label %33

33:                                               ; preds = %.lr.ph.split
  %34 = getelementptr inbounds nuw i8, ptr %32, i64 32
  %35 = load i64, ptr %34, align 8, !tbaa !31
  %36 = icmp slt i64 %35, %2
  br i1 %36, label %37, label %59

37:                                               ; preds = %33
  %38 = getelementptr inbounds nuw i8, ptr %32, i64 24
  %39 = load ptr, ptr %38, align 8, !tbaa !19
  store ptr %39, ptr %.02535, align 8, !tbaa !17
  %40 = getelementptr inbounds nuw i8, ptr %32, i64 8
  %41 = load ptr, ptr %40, align 8, !tbaa !27
  %42 = getelementptr inbounds nuw i8, ptr %32, i64 16
  %43 = load ptr, ptr %42, align 8, !tbaa !28
  %44 = icmp eq ptr %41, %43
  %45 = getelementptr inbounds nuw i8, ptr %32, i64 40
  %46 = load i16, ptr %45, align 8, !tbaa !26
  %47 = zext i16 %46 to i64
  br i1 %44, label %48, label %51

48:                                               ; preds = %37
  %49 = load i64, ptr getelementptr inbounds nuw (i8, ptr @cwd_globals, i64 16), align 8, !tbaa !29
  %reass.sub = sub i64 %49, %47
  %50 = add i64 %reass.sub, -49
  br label %58

51:                                               ; preds = %37
  %52 = getelementptr inbounds nuw i8, ptr %32, i64 42
  %53 = load i16, ptr %52, align 2, !tbaa !30
  %54 = zext i16 %53 to i64
  %55 = load i64, ptr getelementptr inbounds nuw (i8, ptr @cwd_globals, i64 16), align 8, !tbaa !29
  %56 = add nuw nsw i64 %47, %54
  %reass.sub39 = sub i64 %55, %56
  %57 = add i64 %reass.sub39, -50
  br label %58

58:                                               ; preds = %51, %48
  %storemerge = phi i64 [ %57, %51 ], [ %50, %48 ]
  store i64 %storemerge, ptr getelementptr inbounds nuw (i8, ptr @cwd_globals, i64 16), align 8, !tbaa !29
  tail call void @free(ptr noundef nonnull %32) #22
  %.pre = load i64, ptr getelementptr inbounds nuw (i8, ptr @cwd_globals, i64 32), align 8, !tbaa !16
  br label %73

59:                                               ; preds = %33, %.lr.ph.split
  %60 = load i64, ptr %32, align 8, !tbaa !25
  %61 = icmp eq i64 %.07.lcssa.i, %60
  br i1 %61, label %62, label %71

62:                                               ; preds = %59
  %63 = getelementptr inbounds nuw i8, ptr %32, i64 40
  %64 = load i16, ptr %63, align 8, !tbaa !26
  %65 = zext i16 %64 to i64
  %66 = icmp eq i64 %1, %65
  br i1 %66, label %67, label %71

67:                                               ; preds = %62
  %68 = getelementptr inbounds nuw i8, ptr %32, i64 8
  %69 = load ptr, ptr %68, align 8, !tbaa !27
  %bcmp = tail call i32 @bcmp(ptr %0, ptr %69, i64 %1)
  %70 = icmp eq i32 %bcmp, 0
  br i1 %70, label %._crit_edge, label %71

71:                                               ; preds = %67, %62, %59
  %72 = getelementptr inbounds nuw i8, ptr %32, i64 24
  br label %73

73:                                               ; preds = %71, %58
  %74 = phi i64 [ %.pre, %58 ], [ %31, %71 ]
  %.1 = phi ptr [ %.02535, %58 ], [ %72, %71 ]
  %75 = load ptr, ptr %.1, align 8, !tbaa !17
  %.not = icmp eq ptr %75, null
  br i1 %.not, label %._crit_edge, label %.lr.ph.split, !llvm.loop !32

._crit_edge:                                      ; preds = %67, %73, %24, %28, %realpath_cache_key.exit
  %.lcssa = phi ptr [ null, %realpath_cache_key.exit ], [ null, %28 ], [ %16, %24 ], [ null, %73 ], [ %32, %67 ]
  ret ptr %.lcssa
}